---
triple:          'arm64-apple-darwin'
binary-path:     '/Users/rabble/Library/Developer/Xcode/DerivedData/Runner-dmkivrvaixlwqxexxmsfkbejednj/Build/Intermediates.noindex/ArchiveIntermediates/Runner/IntermediateBuildFilesPath/UninstalledProducts/macosx/media_kit_native_event_loop.framework/Versions/A/media_kit_native_event_loop'
relocations:
  - { offset: 0x4193, size: 0x8, addend: 0x0, symName: _media_kit_native_event_loopVersionString, symObjAddr: 0x0, symBinAddr: 0x79F8, symSize: 0x0 }
  - { offset: 0x41C7, size: 0x8, addend: 0x0, symName: _media_kit_native_event_loopVersionNumber, symObjAddr: 0x40, symBinAddr: 0x7A38, symSize: 0x0 }
  - { offset: 0x1276E, size: 0x8, addend: 0x0, symName: __ZNSt3__1L19piecewise_constructE, symObjAddr: 0x40A4, symBinAddr: 0x7A40, symSize: 0x0 }
  - { offset: 0x15880, size: 0x8, addend: 0x0, symName: __ZNSt3__124__put_character_sequenceB8ne180100IcNS_11char_traitsIcEEEERNS_13basic_ostreamIT_T0_EES7_PKS4_m, symObjAddr: 0x1E24, symBinAddr: 0x5CA4, symSize: 0x164 }
  - { offset: 0x1A866, size: 0x8, addend: 0x0, symName: __ZNSt3__1lsB8ne180100IcNS_11char_traitsIcEEEERNS_13basic_ostreamIT_T0_EES7_RKNS_10error_codeE, symObjAddr: 0x714, symBinAddr: 0x48B4, symSize: 0x74 }
  - { offset: 0x1A9D7, size: 0x8, addend: 0x0, symName: __ZNSt3__14endlB8ne180100IcNS_11char_traitsIcEEEERNS_13basic_ostreamIT_T0_EES7_, symObjAddr: 0x788, symBinAddr: 0x4928, symSize: 0x90 }
  - { offset: 0x1AEE3, size: 0x8, addend: 0x0, symName: __ZNSt3__119__allocate_at_leastB8ne180100INS_9allocatorIP10mpv_handleEEEENS_19__allocation_resultINS_16allocator_traitsIT_E7pointerEEERS7_m, symObjAddr: 0x3B48, symBinAddr: 0x6FAC, symSize: 0x34 }
  - { offset: 0x1AF8B, size: 0x8, addend: 0x0, symName: __ZNSt3__112__hash_tableINS_17__hash_value_typeIP10mpv_handleNS_10unique_ptrINS_5mutexENS_14default_deleteIS5_EEEEEENS_22__unordered_map_hasherIS3_S9_NS_4hashIS3_EENS_8equal_toIS3_EELb1EEENS_21__unordered_map_equalIS3_S9_SE_SC_Lb1EEENS_9allocatorIS9_EEED2Ev, symObjAddr: 0x3B7C, symBinAddr: 0x6FE0, symSize: 0x38 }
  - { offset: 0x1B1DB, size: 0x8, addend: 0x0, symName: __ZNSt3__116__pad_and_outputB8ne180100IcNS_11char_traitsIcEEEENS_19ostreambuf_iteratorIT_T0_EES6_PKS4_S8_S8_RNS_8ios_baseES4_, symObjAddr: 0x1F88, symBinAddr: 0x5E08, symSize: 0x13C }
  - { offset: 0x1B810, size: 0x8, addend: 0x0, symName: __ZNSt3__120__throw_length_errorB8ne180100EPKc, symObjAddr: 0x2180, symBinAddr: 0x6000, symSize: 0x50 }
  - { offset: 0x1BA07, size: 0x8, addend: 0x0, symName: '__ZNSt3__114__thread_proxyB8ne180100INS_5tupleIJNS_10unique_ptrINS_15__thread_structENS_14default_deleteIS3_EEEEZN24MediaKitEventLoopHandler8RegisterExPvxE3$_0EEEEES8_S8_', symObjAddr: 0x21F4, symBinAddr: 0x6074, symSize: 0x68 }
  - { offset: 0x1BE28, size: 0x8, addend: 0x0, symName: '__ZNSt3__114__thread_proxyB8ne180100INS_5tupleIJNS_10unique_ptrINS_15__thread_structENS_14default_deleteIS3_EEEEZN24MediaKitEventLoopHandler7DisposeExbE3$_0EEEEEPvSA_', symObjAddr: 0x3250, symBinAddr: 0x6B7C, symSize: 0xD0 }
  - { offset: 0x1D217, size: 0x8, addend: 0x0, symName: __ZSt28__throw_bad_array_new_lengthB8ne180100v, symObjAddr: 0x1074, symBinAddr: 0x5214, symSize: 0x28 }
  - { offset: 0x1EDAD, size: 0x8, addend: 0x0, symName: __ZN24MediaKitEventLoopHandler11GetInstanceEv, symObjAddr: 0x0, symBinAddr: 0x41A0, symSize: 0x90 }
  - { offset: 0x1EDCF, size: 0x8, addend: 0x0, symName: __ZZN24MediaKitEventLoopHandler11GetInstanceEvE8instance, symObjAddr: 0xBFC60, symBinAddr: 0xC2B0, symSize: 0x0 }
  - { offset: 0x1F4EF, size: 0x8, addend: 0x0, symName: __ZN24MediaKitEventLoopHandler8RegisterExPvx, symObjAddr: 0x98, symBinAddr: 0x4238, symSize: 0x270 }
  - { offset: 0x20628, size: 0x8, addend: 0x0, symName: __ZN24MediaKitEventLoopHandler7DisposeExb, symObjAddr: 0x478, symBinAddr: 0x4618, symSize: 0x29C }
  - { offset: 0x210E3, size: 0x8, addend: 0x0, symName: __ZN24MediaKitEventLoopHandlerC2Ev, symObjAddr: 0x9C0, symBinAddr: 0x4B60, symSize: 0xCC }
  - { offset: 0x2195E, size: 0x8, addend: 0x0, symName: __ZN24MediaKitEventLoopHandlerC1Ev, symObjAddr: 0x90, symBinAddr: 0x4230, symSize: 0x4 }
  - { offset: 0x21982, size: 0x8, addend: 0x0, symName: __ZN24MediaKitEventLoopHandlerC1Ev, symObjAddr: 0x90, symBinAddr: 0x4230, symSize: 0x4 }
  - { offset: 0x21996, size: 0x8, addend: 0x0, symName: __ZN24MediaKitEventLoopHandlerD1Ev, symObjAddr: 0x94, symBinAddr: 0x4234, symSize: 0x4 }
  - { offset: 0x219C4, size: 0x8, addend: 0x0, symName: __ZN24MediaKitEventLoopHandlerD1Ev, symObjAddr: 0x94, symBinAddr: 0x4234, symSize: 0x4 }
  - { offset: 0x219D8, size: 0x8, addend: 0x0, symName: __ZN24MediaKitEventLoopHandlerD2Ev, symObjAddr: 0xA8C, symBinAddr: 0x4C2C, symSize: 0x194 }
  - { offset: 0x230E4, size: 0x8, addend: 0x0, symName: __ZN24MediaKitEventLoopHandler12IsRegisteredEx, symObjAddr: 0x308, symBinAddr: 0x44A8, symSize: 0x9C }
  - { offset: 0x232D4, size: 0x8, addend: 0x0, symName: __ZNSt3__112__hash_tableINS_17__hash_value_typeIP10mpv_handleNS_10unique_ptrINS_5mutexENS_14default_deleteIS5_EEEEEENS_22__unordered_map_hasherIS3_S9_NS_4hashIS3_EENS_8equal_toIS3_EELb1EEENS_21__unordered_map_equalIS3_S9_SE_SC_Lb1EEENS_9allocatorIS9_EEE4findIS3_EENS_15__hash_iteratorIPNS_11__hash_nodeIS9_PvEEEERKT_, symObjAddr: 0xCDC, symBinAddr: 0x4E7C, symSize: 0xEC }
  - { offset: 0x23331, size: 0x8, addend: 0x0, symName: __ZNSt3__112__hash_tableINS_17__hash_value_typeIP10mpv_handleNS_10unique_ptrINS_5mutexENS_14default_deleteIS5_EEEEEENS_22__unordered_map_hasherIS3_S9_NS_4hashIS3_EENS_8equal_toIS3_EELb1EEENS_21__unordered_map_equalIS3_S9_SE_SC_Lb1EEENS_9allocatorIS9_EEE4findIS3_EENS_15__hash_iteratorIPNS_11__hash_nodeIS9_PvEEEERKT_, symObjAddr: 0xCDC, symBinAddr: 0x4E7C, symSize: 0xEC }
  - { offset: 0x2334F, size: 0x8, addend: 0x0, symName: __ZNSt3__112__hash_tableINS_17__hash_value_typeIP10mpv_handleNS_10unique_ptrINS_5mutexENS_14default_deleteIS5_EEEEEENS_22__unordered_map_hasherIS3_S9_NS_4hashIS3_EENS_8equal_toIS3_EELb1EEENS_21__unordered_map_equalIS3_S9_SE_SC_Lb1EEENS_9allocatorIS9_EEE4findIS3_EENS_15__hash_iteratorIPNS_11__hash_nodeIS9_PvEEEERKT_, symObjAddr: 0xCDC, symBinAddr: 0x4E7C, symSize: 0xEC }
  - { offset: 0x23478, size: 0x8, addend: 0x0, symName: __ZNSt3__112__hash_tableINS_17__hash_value_typeIP10mpv_handleNS_10unique_ptrINS_5mutexENS_14default_deleteIS5_EEEEEENS_22__unordered_map_hasherIS3_S9_NS_4hashIS3_EENS_8equal_toIS3_EELb1EEENS_21__unordered_map_equalIS3_S9_SE_SC_Lb1EEENS_9allocatorIS9_EEE25__emplace_unique_key_argsIS3_JNS_4pairIS3_S8_EEEEENSM_INS_15__hash_iteratorIPNS_11__hash_nodeIS9_PvEEEEbEERKT_DpOT0_, symObjAddr: 0xDF4, symBinAddr: 0x4F94, symSize: 0x280 }
  - { offset: 0x23DDA, size: 0x8, addend: 0x0, symName: __ZNSt3__112__hash_tableINS_17__hash_value_typeIP10mpv_handleNS_10unique_ptrINS_18condition_variableENS_14default_deleteIS5_EEEEEENS_22__unordered_map_hasherIS3_S9_NS_4hashIS3_EENS_8equal_toIS3_EELb1EEENS_21__unordered_map_equalIS3_S9_SE_SC_Lb1EEENS_9allocatorIS9_EEE25__emplace_unique_key_argsIS3_JNS_4pairIS3_S8_EEEEENSM_INS_15__hash_iteratorIPNS_11__hash_nodeIS9_PvEEEEbEERKT_DpOT0_, symObjAddr: 0x142C, symBinAddr: 0x54E0, symSize: 0x280 }
  - { offset: 0x246AE, size: 0x8, addend: 0x0, symName: '__ZNSt3__110unique_ptrINS_5tupleIJNS0_INS_15__thread_structENS_14default_deleteIS2_EEEEZN24MediaKitEventLoopHandler8RegisterExPvxE3$_0EEENS3_IS9_EEED1B8ne180100Ev', symObjAddr: 0x225C, symBinAddr: 0x60DC, symSize: 0x40 }
  - { offset: 0x24840, size: 0x8, addend: 0x0, symName: __ZNSt3__112__hash_tableINS_17__hash_value_typeIP10mpv_handleNS_10unique_ptrINS_6threadENS_14default_deleteIS5_EEEEEENS_22__unordered_map_hasherIS3_S9_NS_4hashIS3_EENS_8equal_toIS3_EELb1EEENS_21__unordered_map_equalIS3_S9_SE_SC_Lb1EEENS_9allocatorIS9_EEE25__emplace_unique_key_argsIS3_JNS_4pairIS3_S8_EEEEENSM_INS_15__hash_iteratorIPNS_11__hash_nodeIS9_PvEEEEbEERKT_DpOT0_, symObjAddr: 0x2654, symBinAddr: 0x63E8, symSize: 0x280 }
  - { offset: 0x252D6, size: 0x8, addend: 0x0, symName: __ZN24MediaKitEventLoopHandler6NotifyEx, symObjAddr: 0x3A4, symBinAddr: 0x4544, symSize: 0xD4 }
  - { offset: 0x2558E, size: 0x8, addend: 0x0, symName: __ZNSt3__112__hash_tableINS_17__hash_value_typeIP10mpv_handleNS_10unique_ptrINS_5mutexENS_14default_deleteIS5_EEEEEENS_22__unordered_map_hasherIS3_S9_NS_4hashIS3_EENS_8equal_toIS3_EELb1EEENS_21__unordered_map_equalIS3_S9_SE_SC_Lb1EEENS_9allocatorIS9_EEE25__emplace_unique_key_argsIS3_JRKNS_21piecewise_construct_tENS_5tupleIJRKS3_EEENSP_IJEEEEEENS_4pairINS_15__hash_iteratorIPNS_11__hash_nodeIS9_PvEEEEbEERKT_DpOT0_, symObjAddr: 0x1924, symBinAddr: 0x57A4, symSize: 0x280 }
  - { offset: 0x25DCC, size: 0x8, addend: 0x0, symName: __ZNSt3__112__hash_tableINS_17__hash_value_typeIP10mpv_handleNS_10unique_ptrINS_18condition_variableENS_14default_deleteIS5_EEEEEENS_22__unordered_map_hasherIS3_S9_NS_4hashIS3_EENS_8equal_toIS3_EELb1EEENS_21__unordered_map_equalIS3_S9_SE_SC_Lb1EEENS_9allocatorIS9_EEE25__emplace_unique_key_argsIS3_JRKNS_21piecewise_construct_tENS_5tupleIJRKS3_EEENSP_IJEEEEEENS_4pairINS_15__hash_iteratorIPNS_11__hash_nodeIS9_PvEEEEbEERKT_DpOT0_, symObjAddr: 0x1BA4, symBinAddr: 0x5A24, symSize: 0x280 }
  - { offset: 0x26CAA, size: 0x8, addend: 0x0, symName: __ZNSt3__112__hash_tableIP10mpv_handleNS_4hashIS2_EENS_8equal_toIS2_EENS_9allocatorIS2_EEE25__emplace_unique_key_argsIS2_JRKS2_EEENS_4pairINS_15__hash_iteratorIPNS_11__hash_nodeIS2_PvEEEEbEERKT_DpOT0_, symObjAddr: 0x2B4C, symBinAddr: 0x66AC, symSize: 0x250 }
  - { offset: 0x273EE, size: 0x8, addend: 0x0, symName: __ZNSt3__112__hash_tableINS_17__hash_value_typeIP10mpv_handleNS_10unique_ptrINS_6threadENS_14default_deleteIS5_EEEEEENS_22__unordered_map_hasherIS3_S9_NS_4hashIS3_EENS_8equal_toIS3_EELb1EEENS_21__unordered_map_equalIS3_S9_SE_SC_Lb1EEENS_9allocatorIS9_EEE25__emplace_unique_key_argsIS3_JRKNS_21piecewise_construct_tENS_5tupleIJRKS3_EEENSP_IJEEEEEENS_4pairINS_15__hash_iteratorIPNS_11__hash_nodeIS9_PvEEEEbEERKT_DpOT0_, symObjAddr: 0x2FD0, symBinAddr: 0x68FC, symSize: 0x280 }
  - { offset: 0x281FE, size: 0x8, addend: 0x0, symName: __ZN24MediaKitEventLoopHandler10InitializeEv, symObjAddr: 0x828, symBinAddr: 0x49C8, symSize: 0x198 }
  - { offset: 0x28AB1, size: 0x8, addend: 0x0, symName: __ZNKSt3__16vectorIP10mpv_handleNS_9allocatorIS2_EEE20__throw_length_errorB8ne180100Ev, symObjAddr: 0x3B34, symBinAddr: 0x6F98, symSize: 0x14 }
  - { offset: 0x28ADB, size: 0x8, addend: 0x0, symName: __ZNSt3__119__allocate_at_leastB8ne180100INS_9allocatorIP10mpv_handleEEEENS_19__allocation_resultINS_16allocator_traitsIT_E7pointerEEERS7_m, symObjAddr: 0x3B48, symBinAddr: 0x6FAC, symSize: 0x34 }
  - { offset: 0x292BA, size: 0x8, addend: 0x0, symName: __ZNSt3__112__hash_tableIP10mpv_handleNS_4hashIS2_EENS_8equal_toIS2_EENS_9allocatorIS2_EEED2Ev, symObjAddr: 0x3CE4, symBinAddr: 0x7148, symSize: 0x48 }
  - { offset: 0x2956C, size: 0x8, addend: 0x0, symName: __ZNSt3__112__hash_tableINS_17__hash_value_typeIP10mpv_handleNS_10unique_ptrINS_18condition_variableENS_14default_deleteIS5_EEEEEENS_22__unordered_map_hasherIS3_S9_NS_4hashIS3_EENS_8equal_toIS3_EELb1EEENS_21__unordered_map_equalIS3_S9_SE_SC_Lb1EEENS_9allocatorIS9_EEED2Ev, symObjAddr: 0x3C6C, symBinAddr: 0x70D0, symSize: 0x38 }
  - { offset: 0x296FC, size: 0x8, addend: 0x0, symName: __ZNSt3__112__hash_tableINS_17__hash_value_typeIP10mpv_handleNS_10unique_ptrINS_6threadENS_14default_deleteIS5_EEEEEENS_22__unordered_map_hasherIS3_S9_NS_4hashIS3_EENS_8equal_toIS3_EELb1EEENS_21__unordered_map_equalIS3_S9_SE_SC_Lb1EEENS_9allocatorIS9_EEED2Ev, symObjAddr: 0x3BF4, symBinAddr: 0x7058, symSize: 0x38 }
  - { offset: 0x2988C, size: 0x8, addend: 0x0, symName: __ZNSt3__112__hash_tableINS_17__hash_value_typeIP10mpv_handleNS_10unique_ptrINS_5mutexENS_14default_deleteIS5_EEEEEENS_22__unordered_map_hasherIS3_S9_NS_4hashIS3_EENS_8equal_toIS3_EELb1EEENS_21__unordered_map_equalIS3_S9_SE_SC_Lb1EEENS_9allocatorIS9_EEED2Ev, symObjAddr: 0x3B7C, symBinAddr: 0x6FE0, symSize: 0x38 }
  - { offset: 0x29A1C, size: 0x8, addend: 0x0, symName: _MediaKitEventLoopHandlerRegister, symObjAddr: 0xC20, symBinAddr: 0x4DC0, symSize: 0x44 }
  - { offset: 0x29A7F, size: 0x8, addend: 0x0, symName: _MediaKitEventLoopHandlerNotify, symObjAddr: 0xC64, symBinAddr: 0x4E04, symSize: 0x2C }
  - { offset: 0x29AC2, size: 0x8, addend: 0x0, symName: _MediaKitEventLoopHandlerDispose, symObjAddr: 0xC90, symBinAddr: 0x4E30, symSize: 0x30 }
  - { offset: 0x29B0C, size: 0x8, addend: 0x0, symName: _MediaKitEventLoopHandlerInitialize, symObjAddr: 0xCC0, symBinAddr: 0x4E60, symSize: 0x1C }
  - { offset: 0x29C22, size: 0x8, addend: 0x0, symName: __ZNSt3__110unique_ptrINS_5mutexENS_14default_deleteIS1_EEE5resetB8ne180100EPS1_, symObjAddr: 0xDC8, symBinAddr: 0x4F68, symSize: 0x2C }
  - { offset: 0x2A2D5, size: 0x8, addend: 0x0, symName: __ZNSt3__112__hash_tableINS_17__hash_value_typeIP10mpv_handleNS_10unique_ptrINS_5mutexENS_14default_deleteIS5_EEEEEENS_22__unordered_map_hasherIS3_S9_NS_4hashIS3_EENS_8equal_toIS3_EELb1EEENS_21__unordered_map_equalIS3_S9_SE_SC_Lb1EEENS_9allocatorIS9_EEE8__rehashILb1EEEvm, symObjAddr: 0x109C, symBinAddr: 0x523C, symSize: 0xDC }
  - { offset: 0x2A3DC, size: 0x8, addend: 0x0, symName: __ZNSt3__122__hash_node_destructorINS_9allocatorINS_11__hash_nodeINS_17__hash_value_typeIP10mpv_handleNS_10unique_ptrINS_5mutexENS_14default_deleteIS7_EEEEEEPvEEEEEclB8ne180100EPSD_, symObjAddr: 0x12D0, symBinAddr: 0x5470, symSize: 0x44 }
  - { offset: 0x2A5B2, size: 0x8, addend: 0x0, symName: __ZNSt3__112__hash_tableINS_17__hash_value_typeIP10mpv_handleNS_10unique_ptrINS_5mutexENS_14default_deleteIS5_EEEEEENS_22__unordered_map_hasherIS3_S9_NS_4hashIS3_EENS_8equal_toIS3_EELb1EEENS_21__unordered_map_equalIS3_S9_SE_SC_Lb1EEENS_9allocatorIS9_EEE11__do_rehashILb1EEEvm, symObjAddr: 0x1178, symBinAddr: 0x5318, symSize: 0x158 }
  - { offset: 0x2AA86, size: 0x8, addend: 0x0, symName: __ZNSt3__122__hash_node_destructorINS_9allocatorINS_11__hash_nodeINS_17__hash_value_typeIP10mpv_handleNS_10unique_ptrINS_5mutexENS_14default_deleteIS7_EEEEEEPvEEEEEclB8ne180100EPSD_, symObjAddr: 0x12D0, symBinAddr: 0x5470, symSize: 0x44 }
  - { offset: 0x2AD19, size: 0x8, addend: 0x0, symName: __ZNSt3__110unique_ptrINS_18condition_variableENS_14default_deleteIS1_EEE5resetB8ne180100EPS1_, symObjAddr: 0x1400, symBinAddr: 0x54B4, symSize: 0x2C }
  - { offset: 0x2B2BE, size: 0x8, addend: 0x0, symName: __ZNSt3__122__hash_node_destructorINS_9allocatorINS_11__hash_nodeINS_17__hash_value_typeIP10mpv_handleNS_10unique_ptrINS_18condition_variableENS_14default_deleteIS7_EEEEEEPvEEEEEclB8ne180100EPSD_, symObjAddr: 0x18E0, symBinAddr: 0x5760, symSize: 0x44 }
  - { offset: 0x2B772, size: 0x8, addend: 0x0, symName: __ZNSt3__122__hash_node_destructorINS_9allocatorINS_11__hash_nodeINS_17__hash_value_typeIP10mpv_handleNS_10unique_ptrINS_18condition_variableENS_14default_deleteIS7_EEEEEEPvEEEEEclB8ne180100EPSD_, symObjAddr: 0x18E0, symBinAddr: 0x5760, symSize: 0x44 }
  - { offset: 0x2C13C, size: 0x8, addend: 0x0, symName: __ZNSt3__112basic_stringIcNS_11char_traitsIcEENS_9allocatorIcEEEC2B8ne180100Emc, symObjAddr: 0x20C4, symBinAddr: 0x5F44, symSize: 0xA8 }
  - { offset: 0x2C3A2, size: 0x8, addend: 0x0, symName: __ZNKSt3__112basic_stringIcNS_11char_traitsIcEENS_9allocatorIcEEE20__throw_length_errorB8ne180100Ev, symObjAddr: 0x216C, symBinAddr: 0x5FEC, symSize: 0x14 }
  - { offset: 0x2C51C, size: 0x8, addend: 0x0, symName: __ZNKSt3__112basic_stringIcNS_11char_traitsIcEENS_9allocatorIcEEE20__throw_length_errorB8ne180100Ev, symObjAddr: 0x216C, symBinAddr: 0x5FEC, symSize: 0x14 }
  - { offset: 0x2C546, size: 0x8, addend: 0x0, symName: __ZNSt3__120__throw_length_errorB8ne180100EPKc, symObjAddr: 0x2180, symBinAddr: 0x6000, symSize: 0x50 }
  - { offset: 0x2C551, size: 0x8, addend: 0x0, symName: __ZNSt12length_errorC1B8ne180100EPKc, symObjAddr: 0x21D0, symBinAddr: 0x6050, symSize: 0x24 }
  - { offset: 0x2C692, size: 0x8, addend: 0x0, symName: '__ZZN24MediaKitEventLoopHandler8RegisterExPvxENK3$_0clEv', symObjAddr: 0x229C, symBinAddr: 0x611C, symSize: 0x274 }
  - { offset: 0x2CC15, size: 0x8, addend: 0x0, symName: __ZNSt3__110unique_ptrINS_15__thread_structENS_14default_deleteIS1_EEE5resetB8ne180100EPS1_, symObjAddr: 0x25FC, symBinAddr: 0x6390, symSize: 0x2C }
  - { offset: 0x2CEFF, size: 0x8, addend: 0x0, symName: __ZNSt3__110unique_ptrINS_6threadENS_14default_deleteIS1_EEE5resetB8ne180100EPS1_, symObjAddr: 0x2628, symBinAddr: 0x63BC, symSize: 0x2C }
  - { offset: 0x2D552, size: 0x8, addend: 0x0, symName: __ZNSt3__122__hash_node_destructorINS_9allocatorINS_11__hash_nodeINS_17__hash_value_typeIP10mpv_handleNS_10unique_ptrINS_6threadENS_14default_deleteIS7_EEEEEEPvEEEEEclB8ne180100EPSD_, symObjAddr: 0x2B08, symBinAddr: 0x6668, symSize: 0x44 }
  - { offset: 0x2DA06, size: 0x8, addend: 0x0, symName: __ZNSt3__122__hash_node_destructorINS_9allocatorINS_11__hash_nodeINS_17__hash_value_typeIP10mpv_handleNS_10unique_ptrINS_6threadENS_14default_deleteIS7_EEEEEEPvEEEEEclB8ne180100EPSD_, symObjAddr: 0x2B08, symBinAddr: 0x6668, symSize: 0x44 }
  - { offset: 0x2E23C, size: 0x8, addend: 0x0, symName: __ZNSt3__112__hash_tableINS_17__hash_value_typeIP10mpv_handleNS_10unique_ptrINS_6threadENS_14default_deleteIS5_EEEEEENS_22__unordered_map_hasherIS3_S9_NS_4hashIS3_EENS_8equal_toIS3_EELb1EEENS_21__unordered_map_equalIS3_S9_SE_SC_Lb1EEENS_9allocatorIS9_EEE25__emplace_unique_key_argsIS3_JRKNS_21piecewise_construct_tENS_5tupleIJRKS3_EEENSP_IJEEEEEENS_4pairINS_15__hash_iteratorIPNS_11__hash_nodeIS9_PvEEEEbEERKT_DpOT0_, symObjAddr: 0x2FD0, symBinAddr: 0x68FC, symSize: 0x280 }
  - { offset: 0x2E6C8, size: 0x8, addend: 0x0, symName: __ZNSt3__112__hash_tableINS_17__hash_value_typeIP10mpv_handleNS_10unique_ptrINS_5mutexENS_14default_deleteIS5_EEEEEENS_22__unordered_map_hasherIS3_S9_NS_4hashIS3_EENS_8equal_toIS3_EELb1EEENS_21__unordered_map_equalIS3_S9_SE_SC_Lb1EEENS_9allocatorIS9_EEE14__erase_uniqueIS3_EEmRKT_, symObjAddr: 0x3360, symBinAddr: 0x6C4C, symSize: 0x34 }
  - { offset: 0x2E751, size: 0x8, addend: 0x0, symName: __ZNSt3__112__hash_tableINS_17__hash_value_typeIP10mpv_handleNS_10unique_ptrINS_6threadENS_14default_deleteIS5_EEEEEENS_22__unordered_map_hasherIS3_S9_NS_4hashIS3_EENS_8equal_toIS3_EELb1EEENS_21__unordered_map_equalIS3_S9_SE_SC_Lb1EEENS_9allocatorIS9_EEE14__erase_uniqueIS3_EEmRKT_, symObjAddr: 0x3520, symBinAddr: 0x6E0C, symSize: 0x34 }
  - { offset: 0x2E7DA, size: 0x8, addend: 0x0, symName: __ZNSt3__112__hash_tableINS_17__hash_value_typeIP10mpv_handleNS_10unique_ptrINS_18condition_variableENS_14default_deleteIS5_EEEEEENS_22__unordered_map_hasherIS3_S9_NS_4hashIS3_EENS_8equal_toIS3_EELb1EEENS_21__unordered_map_equalIS3_S9_SE_SC_Lb1EEENS_9allocatorIS9_EEE14__erase_uniqueIS3_EEmRKT_, symObjAddr: 0x37CC, symBinAddr: 0x6E98, symSize: 0x34 }
  - { offset: 0x2E863, size: 0x8, addend: 0x0, symName: __ZNSt3__112__hash_tableIP10mpv_handleNS_4hashIS2_EENS_8equal_toIS2_EENS_9allocatorIS2_EEE14__erase_uniqueIS2_EEmRKT_, symObjAddr: 0x398C, symBinAddr: 0x6F24, symSize: 0x34 }
  - { offset: 0x2E9D1, size: 0x8, addend: 0x0, symName: __ZNSt3__112__hash_tableINS_17__hash_value_typeIP10mpv_handleNS_10unique_ptrINS_5mutexENS_14default_deleteIS5_EEEEEENS_22__unordered_map_hasherIS3_S9_NS_4hashIS3_EENS_8equal_toIS3_EELb1EEENS_21__unordered_map_equalIS3_S9_SE_SC_Lb1EEENS_9allocatorIS9_EEE5eraseENS_21__hash_const_iteratorIPNS_11__hash_nodeIS9_PvEEEE, symObjAddr: 0x3394, symBinAddr: 0x6C80, symSize: 0x58 }
  - { offset: 0x2ECE8, size: 0x8, addend: 0x0, symName: __ZNSt3__112__hash_tableINS_17__hash_value_typeIP10mpv_handleNS_10unique_ptrINS_5mutexENS_14default_deleteIS5_EEEEEENS_22__unordered_map_hasherIS3_S9_NS_4hashIS3_EENS_8equal_toIS3_EELb1EEENS_21__unordered_map_equalIS3_S9_SE_SC_Lb1EEENS_9allocatorIS9_EEE6removeENS_21__hash_const_iteratorIPNS_11__hash_nodeIS9_PvEEEE, symObjAddr: 0x33EC, symBinAddr: 0x6CD8, symSize: 0x134 }
  - { offset: 0x2ED63, size: 0x8, addend: 0x0, symName: __ZNSt3__112__hash_tableINS_17__hash_value_typeIP10mpv_handleNS_10unique_ptrINS_5mutexENS_14default_deleteIS5_EEEEEENS_22__unordered_map_hasherIS3_S9_NS_4hashIS3_EENS_8equal_toIS3_EELb1EEENS_21__unordered_map_equalIS3_S9_SE_SC_Lb1EEENS_9allocatorIS9_EEE6removeENS_21__hash_const_iteratorIPNS_11__hash_nodeIS9_PvEEEE, symObjAddr: 0x33EC, symBinAddr: 0x6CD8, symSize: 0x134 }
  - { offset: 0x2ED81, size: 0x8, addend: 0x0, symName: __ZNSt3__112__hash_tableINS_17__hash_value_typeIP10mpv_handleNS_10unique_ptrINS_5mutexENS_14default_deleteIS5_EEEEEENS_22__unordered_map_hasherIS3_S9_NS_4hashIS3_EENS_8equal_toIS3_EELb1EEENS_21__unordered_map_equalIS3_S9_SE_SC_Lb1EEENS_9allocatorIS9_EEE6removeENS_21__hash_const_iteratorIPNS_11__hash_nodeIS9_PvEEEE, symObjAddr: 0x33EC, symBinAddr: 0x6CD8, symSize: 0x134 }
  - { offset: 0x2F017, size: 0x8, addend: 0x0, symName: __ZNSt3__112__hash_tableINS_17__hash_value_typeIP10mpv_handleNS_10unique_ptrINS_6threadENS_14default_deleteIS5_EEEEEENS_22__unordered_map_hasherIS3_S9_NS_4hashIS3_EENS_8equal_toIS3_EELb1EEENS_21__unordered_map_equalIS3_S9_SE_SC_Lb1EEENS_9allocatorIS9_EEE5eraseENS_21__hash_const_iteratorIPNS_11__hash_nodeIS9_PvEEEE, symObjAddr: 0x3640, symBinAddr: 0x6E40, symSize: 0x58 }
  - { offset: 0x2F517, size: 0x8, addend: 0x0, symName: __ZNSt3__112__hash_tableINS_17__hash_value_typeIP10mpv_handleNS_10unique_ptrINS_18condition_variableENS_14default_deleteIS5_EEEEEENS_22__unordered_map_hasherIS3_S9_NS_4hashIS3_EENS_8equal_toIS3_EELb1EEENS_21__unordered_map_equalIS3_S9_SE_SC_Lb1EEENS_9allocatorIS9_EEE5eraseENS_21__hash_const_iteratorIPNS_11__hash_nodeIS9_PvEEEE, symObjAddr: 0x3800, symBinAddr: 0x6ECC, symSize: 0x58 }
  - { offset: 0x2FA17, size: 0x8, addend: 0x0, symName: __ZNSt3__112__hash_tableIP10mpv_handleNS_4hashIS2_EENS_8equal_toIS2_EENS_9allocatorIS2_EEE5eraseENS_21__hash_const_iteratorIPNS_11__hash_nodeIS2_PvEEEE, symObjAddr: 0x39C0, symBinAddr: 0x6F58, symSize: 0x40 }
  - { offset: 0x2FFCF, size: 0x8, addend: 0x0, symName: __ZNSt3__112__hash_tableINS_17__hash_value_typeIP10mpv_handleNS_10unique_ptrINS_5mutexENS_14default_deleteIS5_EEEEEENS_22__unordered_map_hasherIS3_S9_NS_4hashIS3_EENS_8equal_toIS3_EELb1EEENS_21__unordered_map_equalIS3_S9_SE_SC_Lb1EEENS_9allocatorIS9_EEE17__deallocate_nodeEPNS_16__hash_node_baseIPNS_11__hash_nodeIS9_PvEEEE, symObjAddr: 0x3BB4, symBinAddr: 0x7018, symSize: 0x40 }
  - { offset: 0x30243, size: 0x8, addend: 0x0, symName: __ZNSt3__112__hash_tableINS_17__hash_value_typeIP10mpv_handleNS_10unique_ptrINS_6threadENS_14default_deleteIS5_EEEEEENS_22__unordered_map_hasherIS3_S9_NS_4hashIS3_EENS_8equal_toIS3_EELb1EEENS_21__unordered_map_equalIS3_S9_SE_SC_Lb1EEENS_9allocatorIS9_EEE17__deallocate_nodeEPNS_16__hash_node_baseIPNS_11__hash_nodeIS9_PvEEEE, symObjAddr: 0x3C2C, symBinAddr: 0x7090, symSize: 0x40 }
  - { offset: 0x304B7, size: 0x8, addend: 0x0, symName: __ZNSt3__112__hash_tableINS_17__hash_value_typeIP10mpv_handleNS_10unique_ptrINS_18condition_variableENS_14default_deleteIS5_EEEEEENS_22__unordered_map_hasherIS3_S9_NS_4hashIS3_EENS_8equal_toIS3_EELb1EEENS_21__unordered_map_equalIS3_S9_SE_SC_Lb1EEENS_9allocatorIS9_EEE17__deallocate_nodeEPNS_16__hash_node_baseIPNS_11__hash_nodeIS9_PvEEEE, symObjAddr: 0x3CA4, symBinAddr: 0x7108, symSize: 0x40 }
  - { offset: 0x32A70, size: 0x8, addend: 0x0, symName: _env_buf_alloc, symObjAddr: 0x0, symBinAddr: 0x7190, symSize: 0xC }
  - { offset: 0x32A98, size: 0x8, addend: 0x0, symName: _env_key, symObjAddr: 0x3088, symBinAddr: 0xC398, symSize: 0x0 }
  - { offset: 0x32AB5, size: 0x8, addend: 0x0, symName: _entry, symObjAddr: 0x3090, symBinAddr: 0xC3A0, symSize: 0x0 }
  - { offset: 0x32B1E, size: 0x8, addend: 0x0, symName: _once, symObjAddr: 0x310, symBinAddr: 0xC2A0, symSize: 0x0 }
  - { offset: 0x32B34, size: 0x8, addend: 0x0, symName: _old_sa, symObjAddr: 0x3098, symBinAddr: 0xC3A8, symSize: 0x0 }
  - { offset: 0x32B8E, size: 0x8, addend: 0x0, symName: _env_buf_alloc, symObjAddr: 0x0, symBinAddr: 0x7190, symSize: 0xC }
  - { offset: 0x32BDD, size: 0x8, addend: 0x0, symName: _env_buf_free, symObjAddr: 0xC, symBinAddr: 0x719C, symSize: 0x4 }
  - { offset: 0x32BFD, size: 0x8, addend: 0x0, symName: _env_buf_free, symObjAddr: 0xC, symBinAddr: 0x719C, symSize: 0x4 }
  - { offset: 0x32C1F, size: 0x8, addend: 0x0, symName: _env_buf_cur, symObjAddr: 0x10, symBinAddr: 0x71A0, symSize: 0xC }
  - { offset: 0x32C55, size: 0x8, addend: 0x0, symName: _env_buf_get, symObjAddr: 0x1C, symBinAddr: 0x71AC, symSize: 0x4 }
  - { offset: 0x32C8B, size: 0x8, addend: 0x0, symName: _env_buf_push, symObjAddr: 0x20, symBinAddr: 0x71B0, symSize: 0x34 }
  - { offset: 0x32D28, size: 0x8, addend: 0x0, symName: _env_buf_pop, symObjAddr: 0x54, symBinAddr: 0x71E4, symSize: 0x48 }
  - { offset: 0x32DCD, size: 0x8, addend: 0x0, symName: _signal_catch_init, symObjAddr: 0x9C, symBinAddr: 0x722C, symSize: 0x14 }
  - { offset: 0x32E16, size: 0x8, addend: 0x0, symName: _signal_info, symObjAddr: 0xB0, symBinAddr: 0x7240, symSize: 0x30 }
  - { offset: 0x32E64, size: 0x8, addend: 0x0, symName: _signal_name, symObjAddr: 0xE0, symBinAddr: 0x7270, symSize: 0x44 }
  - { offset: 0x32EEC, size: 0x8, addend: 0x0, symName: _try_catch_init, symObjAddr: 0x124, symBinAddr: 0x72B4, symSize: 0x130 }
  - { offset: 0x3316C, size: 0x8, addend: 0x0, symName: _signal_handler, symObjAddr: 0x254, symBinAddr: 0x73E4, symSize: 0xBC }
  - { offset: 0x33220, size: 0x8, addend: 0x0, symName: _once, symObjAddr: 0x310, symBinAddr: 0xC2A0, symSize: 0x0 }
...
